target datalayout = "e-m:e-p270:32:32-p271:32:32-p272:64:64-i64:64-i128:128-f80:128-n8:16:32:64-S128"
target triple = "x86_64-pc-linux-gnu"

; Function Attrs: nounwind uwtable
define zeroext i8 @pg_toupper(i8 noundef zeroext %0) #0 {
  %2 = alloca i8, align 1
  %3 = alloca i32, align 4
  %4 = alloca i32, align 4
  store i8 %0, ptr %2, align 1
  %5 = load i8, ptr %2, align 1
  %6 = zext i8 %5 to i32
  %7 = icmp sge i32 %6, 97
  br i1 %7, label %8, label %17

8:                                                ; preds = %1
  %9 = load i8, ptr %2, align 1
  %10 = zext i8 %9 to i32
  %11 = icmp sle i32 %10, 122
  br i1 %11, label %12, label %17

12:                                               ; preds = %8
  %13 = load i8, ptr %2, align 1
  %14 = zext i8 %13 to i32
  %15 = add i32 %14, -32
  %16 = trunc i32 %15 to i8
  store i8 %16, ptr %2, align 1
  br label %45

17:                                               ; preds = %8, %1
  %18 = load i8, ptr %2, align 1
  %19 = zext i8 %18 to i32
  %20 = and i32 %19, 128
  %21 = icmp ne i32 %20, 0
  br i1 %21, label %22, label %44

22:                                               ; preds = %17
  %23 = call ptr @__ctype_b_loc() #4
  %24 = load ptr, ptr %23, align 8
  %25 = load i8, ptr %2, align 1
  %26 = zext i8 %25 to i32
  %27 = sext i32 %26 to i64
  %28 = getelementptr inbounds i16, ptr %24, i64 %27
  %29 = load i16, ptr %28, align 2
  %30 = zext i16 %29 to i32
  %31 = and i32 %30, 512
  %32 = icmp ne i32 %31, 0
  br i1 %32, label %33, label %44

33:                                               ; preds = %22
  call void @llvm.lifetime.start.p0(i64 4, ptr %3) #3
  %34 = call ptr @__ctype_toupper_loc() #4
  %35 = load ptr, ptr %34, align 8
  %36 = load i8, ptr %2, align 1
  %37 = zext i8 %36 to i32
  %38 = sext i32 %37 to i64
  %39 = getelementptr inbounds i32, ptr %35, i64 %38
  %40 = load i32, ptr %39, align 4
  store i32 %40, ptr %3, align 4
  %41 = load i32, ptr %3, align 4
  store i32 %41, ptr %4, align 4
  call void @llvm.lifetime.end.p0(i64 4, ptr %3) #3
  %42 = load i32, ptr %4, align 4
  %43 = trunc i32 %42 to i8
  store i8 %43, ptr %2, align 1
  br label %44

44:                                               ; preds = %33, %22, %17
  br label %45

45:                                               ; preds = %44, %12
  %46 = load i8, ptr %2, align 1
  ret i8 %46
}